target datalayout = "e-m:e-p270:32:32-p271:32:32-p272:64:64-i64:64-i128:128-f80:128-n8:16:32:64-S128"
target triple = "x86_64-pc-linux-gnu"

%struct._lv_image_decoder_t = type { ptr, ptr, ptr, ptr, ptr, ptr, ptr }

@.str = private unnamed_addr constant [4 x i8] c"BIN\00", align 1

; Function Attrs: nounwind uwtable
define void @lv_bin_decoder_init() #0 {
  %1 = alloca ptr, align 8
  %2 = alloca i32, align 4
  call void @llvm.lifetime.start.p0(i64 8, ptr %1) #5
  %3 = call ptr @lv_image_decoder_create()
  store ptr %3, ptr %1, align 8, !tbaa !3
  br label %4

4:                                                ; preds = %0
  %5 = load ptr, ptr %1, align 8, !tbaa !3
  %6 = icmp ne ptr %5, null
  br i1 %6, label %13, label %7

7:                                                ; preds = %4
  br label %8

8:                                                ; preds = %7
  br label %9

9:                                                ; preds = %8
  br label %10

10:                                               ; preds = %9
  br label %11

11:                                               ; preds = %12, %10
  br label %12

12:                                               ; preds = %11
  br label %11

13:                                               ; preds = %4
  br label %14

14:                                               ; preds = %13
  br label %15

15:                                               ; preds = %14
  %16 = load ptr, ptr %1, align 8, !tbaa !3
  %17 = icmp eq ptr %16, null
  br i1 %17, label %18, label %22

18:                                               ; preds = %15
  br label %19

19:                                               ; preds = %18
  br label %20

20:                                               ; preds = %19
  br label %21

21:                                               ; preds = %20
  store i32 1, ptr %2, align 4
  br label %29

22:                                               ; preds = %15
  %23 = load ptr, ptr %1, align 8, !tbaa !3
  call void @lv_image_decoder_set_info_cb(ptr noundef %23, ptr noundef @lv_bin_decoder_info)
  %24 = load ptr, ptr %1, align 8, !tbaa !3
  call void @lv_image_decoder_set_open_cb(ptr noundef %24, ptr noundef @lv_bin_decoder_open)
  %25 = load ptr, ptr %1, align 8, !tbaa !3
  call void @lv_image_decoder_set_get_area_cb(ptr noundef %25, ptr noundef @lv_bin_decoder_get_area)
  %26 = load ptr, ptr %1, align 8, !tbaa !3
  call void @lv_image_decoder_set_close_cb(ptr noundef %26, ptr noundef @lv_bin_decoder_close)
  %27 = load ptr, ptr %1, align 8, !tbaa !3
  %28 = getelementptr inbounds nuw %struct._lv_image_decoder_t, ptr %27, i32 0, i32 5
  store ptr @.str, ptr %28, align 8, !tbaa !8
  store i32 0, ptr %2, align 4
  br label %29

29:                                               ; preds = %22, %21
  call void @llvm.lifetime.end.p0(i64 8, ptr %1) #5
  %30 = load i32, ptr %2, align 4
  switch i32 %30, label %32 [
    i32 0, label %31
    i32 1, label %31
  ]

31:                                               ; preds = %29, %29
  ret void

32:                                               ; preds = %29
  unreachable
}