; Function Attrs: nounwind uwtable
define void @lv_bin_decoder_init() local_unnamed_addr #0 {
  %1 = tail call ptr @lv_image_decoder_create() #4
  %.not = icmp eq ptr %1, null
  br i1 %.not, label %.preheader, label %2

.preheader:                                       ; preds = %0, %.preheader
  br label %.preheader

2:                                                ; preds = %0
  tail call void @lv_image_decoder_set_info_cb(ptr noundef nonnull %1, ptr noundef nonnull @lv_bin_decoder_info) #4
  tail call void @lv_image_decoder_set_open_cb(ptr noundef nonnull %1, ptr noundef nonnull @lv_bin_decoder_open) #4
  tail call void @lv_image_decoder_set_get_area_cb(ptr noundef nonnull %1, ptr noundef nonnull @lv_bin_decoder_get_area) #4
  tail call void @lv_image_decoder_set_close_cb(ptr noundef nonnull %1, ptr noundef nonnull @lv_bin_decoder_close) #4
  %3 = getelementptr inbounds nuw i8, ptr %1, i64 40
  store ptr @.str, ptr %3, align 8, !tbaa !3
  ret void
}